; Function Attrs: mustprogress uwtable
define dso_local void @_Z34CodegenAbslStrFormatIntStringInt64iRKNSt7__cxx1112basic_stringIcSt11char_traitsIcESaIcEEEl(ptr dead_on_unwind noalias writable sret(%"class.std::__cxx11::basic_string") align 8 %0, i32 noundef %1, ptr noundef nonnull align 8 dereferenceable(32) %2, i64 noundef %3) local_unnamed_addr #4 {
  %5 = alloca [3 x %"class.absl::str_format_internal::FormatArgImpl"], align 8
  call void @llvm.lifetime.start.p0(i64 48, ptr nonnull %5) #24, !noalias !26
  %.sroa.0.0.insert.ext.i.i.i.i = zext i32 %1 to i64
  %6 = inttoptr i64 %.sroa.0.0.insert.ext.i.i.i.i to ptr
  store ptr %6, ptr %5, align 8, !tbaa !23, !noalias !26
  %7 = getelementptr inbounds nuw i8, ptr %5, i64 8
  store ptr @_ZN4absl19str_format_internal13FormatArgImpl8DispatchIiEEbNS1_4DataENS0_24FormatConversionSpecImplEPv, ptr %7, align 8, !tbaa !24, !noalias !26
  %8 = getelementptr inbounds nuw i8, ptr %5, i64 16
  store ptr %2, ptr %8, align 8, !tbaa !23, !noalias !26
  %9 = getelementptr inbounds nuw i8, ptr %5, i64 24
  store ptr @_ZN4absl19str_format_internal13FormatArgImpl8DispatchINSt7__cxx1112basic_stringIcSt11char_traitsIcESaIcEEEEEbNS1_4DataENS0_24FormatConversionSpecImplEPv, ptr %9, align 8, !tbaa !24, !noalias !26
  %10 = getelementptr inbounds nuw i8, ptr %5, i64 32
  %11 = inttoptr i64 %3 to ptr
  store ptr %11, ptr %10, align 8, !tbaa !23, !noalias !26
  %12 = getelementptr inbounds nuw i8, ptr %5, i64 40
  store ptr @_ZN4absl19str_format_internal13FormatArgImpl8DispatchIlEEbNS1_4DataENS0_24FormatConversionSpecImplEPv, ptr %12, align 8, !tbaa !24, !noalias !26
  call void @_ZN4absl19str_format_internal10FormatPackB5cxx11ENS0_21UntypedFormatSpecImplENS_4SpanIKNS0_13FormatArgImplEEE(ptr dead_on_unwind writable sret(%"class.std::__cxx11::basic_string") align 8 %0, ptr nonnull @.str.143, i64 8, ptr nonnull %5, i64 3)
  call void @llvm.lifetime.end.p0(i64 48, ptr nonnull %5) #24, !noalias !26
  ret void
}